; Function Attrs: mustprogress uwtable
define void @_ZN16ExclusionChecker25scheduleCheckOfExclusionsEi(ptr noundef nonnull readonly align 8 captures(none) dereferenceable(8) %0, i32 noundef %1) local_unnamed_addr #6 align 2 {
  %3 = alloca i32, align 4
  %4 = load ptr, ptr %0, align 8, !tbaa !59
  %5 = load ptr, ptr %4, align 8, !tbaa !4
  %6 = getelementptr inbounds nuw i8, ptr %5, i64 112
  %7 = load ptr, ptr %6, align 8, !tbaa !61
  %.not.i = icmp eq ptr %7, null
  br i1 %.not.i, label %_ZL25havePPDomainDecompositionPK9t_commrec.exit.thread, label %_ZL25havePPDomainDecompositionPK9t_commrec.exit

_ZL25havePPDomainDecompositionPK9t_commrec.exit:  ; preds = %2
  %8 = getelementptr inbounds nuw i8, ptr %5, i64 8
  %9 = load i32, ptr %8, align 8, !tbaa !79
  %10 = getelementptr inbounds nuw i8, ptr %5, i64 12
  %11 = load i32, ptr %10, align 4, !tbaa !80
  %12 = sub nsw i32 %9, %11
  %13 = icmp sgt i32 %12, 1
  br i1 %13, label %29, label %_ZL25havePPDomainDecompositionPK9t_commrec.exit.thread

_ZL25havePPDomainDecompositionPK9t_commrec.exit.thread: ; preds = %2, %_ZL25havePPDomainDecompositionPK9t_commrec.exit
  %14 = getelementptr inbounds nuw i8, ptr %4, i64 56
  %15 = load i32, ptr %14, align 8, !tbaa !55
  %.not.i2 = icmp eq i32 %1, %15
  br i1 %.not.i2, label %_ZN16ExclusionChecker4Impl5checkEi.exit, label %16

16:                                               ; preds = %_ZL25havePPDomainDecompositionPK9t_commrec.exit.thread
  %17 = getelementptr inbounds nuw i8, ptr %5, i64 32
  %18 = load ptr, ptr %17, align 8, !tbaa !98
  %19 = getelementptr inbounds nuw i8, ptr %5, i64 60
  %20 = load i32, ptr %19, align 4, !tbaa !99
  %21 = icmp eq i32 %20, 0
  br i1 %21, label %26, label %22

22:                                               ; preds = %16
  %23 = getelementptr inbounds nuw i8, ptr %5, i64 56
  %24 = load i32, ptr %23, align 8, !tbaa !100
  %25 = icmp slt i32 %24, 2
  br label %26

26:                                               ; preds = %22, %16
  %27 = phi i1 [ true, %16 ], [ %25, %22 ]
  %28 = sub nsw i32 %15, %1
  tail call void (i32, ptr, i32, ptr, i1, ptr, ...) @_Z20gmx_fatal_collectiveiPKciP10tmpi_comm_bS0_z(i32 noundef 0, ptr noundef nonnull @.str.2, i32 noundef 195, ptr noundef %18, i1 noundef zeroext %27, ptr noundef nonnull @.str.3, i32 noundef %28) #18
  unreachable

29:                                               ; preds = %_ZL25havePPDomainDecompositionPK9t_commrec.exit
  %30 = sitofp i32 %1 to double
  %31 = getelementptr inbounds nuw i8, ptr %4, i64 8
  %32 = load i64, ptr %31, align 8
  %33 = inttoptr i64 %32 to ptr
  store double %30, ptr %33, align 8, !tbaa !96
  call void @llvm.lifetime.start.p0(i64 4, ptr nonnull %3)
  store i32 1, ptr %3, align 4, !tbaa !101
  %34 = getelementptr inbounds nuw i8, ptr %4, i64 40
  %35 = load ptr, ptr %34, align 8, !tbaa !83
  %.not.i.i = icmp eq ptr %35, null
  br i1 %.not.i.i, label %36, label %_ZNKSt8functionIFN3gmx24ObservablesReducerStatusENS0_20ReductionRequirementEEEclES2_.exit

36:                                               ; preds = %29
  tail call void @_ZSt25__throw_bad_function_callv() #18
  unreachable

_ZNKSt8functionIFN3gmx24ObservablesReducerStatusENS0_20ReductionRequirementEEEclES2_.exit: ; preds = %29
  %37 = getelementptr inbounds nuw i8, ptr %4, i64 24
  %38 = getelementptr inbounds nuw i8, ptr %4, i64 48
  %39 = load ptr, ptr %38, align 8, !tbaa !86
  %40 = call noundef i32 %39(ptr noundef nonnull align 8 dereferenceable(32) %37, ptr noundef nonnull align 4 dereferenceable(4) %3)
  call void @llvm.lifetime.end.p0(i64 4, ptr nonnull %3)
  br label %_ZN16ExclusionChecker4Impl5checkEi.exit

_ZN16ExclusionChecker4Impl5checkEi.exit:          ; preds = %_ZL25havePPDomainDecompositionPK9t_commrec.exit.thread, %_ZNKSt8functionIFN3gmx24ObservablesReducerStatusENS0_20ReductionRequirementEEEclES2_.exit
  ret void
}